target datalayout = "e-m:e-p270:32:32-p271:32:32-p272:64:64-i64:64-i128:128-f80:128-n8:16:32:64-S128"
target triple = "x86_64-pc-linux-gnu"

%struct.SDL_WaylandDataSource = type { ptr, ptr, ptr, %struct.SDL_WaylandUserdata }
%struct.SDL_WaylandUserdata = type { i32, ptr }
%struct.SDL_WaylandDataDevice = type { ptr, ptr, ptr, i32, ptr, ptr, ptr, i8, i8, ptr, i32, ptr }

@.str = private unnamed_addr constant [29 x i8] c"application/x-sdl3-source-id\00", align 1
@.str.10 = private unnamed_addr constant [20 x i8] c"Invalid Data Device\00", align 1
@.str.12 = private unnamed_addr constant [15 x i8] c"Invalid source\00", align 1
@.str.13 = private unnamed_addr constant [13 x i8] c"No mime data\00", align 1
@WAYLAND_wl_proxy_marshal_flags = external global ptr, align 8
@WAYLAND_wl_proxy_get_version = external global ptr, align 8

; Function Attrs: inlinehint nounwind uwtable
define internal void @wl_data_source_destroy(ptr noundef %0) #3 {
  %2 = alloca ptr, align 8
  store ptr %0, ptr %2, align 8
  %3 = load ptr, ptr @WAYLAND_wl_proxy_marshal_flags, align 8
  %4 = load ptr, ptr %2, align 8
  %5 = load ptr, ptr @WAYLAND_wl_proxy_get_version, align 8
  %6 = load ptr, ptr %2, align 8
  %7 = call i32 %5(ptr noundef %6)
  %8 = call ptr (ptr, i32, ptr, i32, i32, ...) %3(ptr noundef %4, i32 noundef 1, ptr noundef null, i32 noundef %7, i32 noundef 1)
  ret void
}

; Function Attrs: nounwind uwtable
define hidden void @Wayland_data_source_destroy(ptr noundef %0) #0 {
  %2 = alloca ptr, align 8
  %3 = alloca ptr, align 8
  store ptr %0, ptr %2, align 8
  %4 = load ptr, ptr %2, align 8
  %5 = icmp ne ptr %4, null
  br i1 %5, label %6, label %42

6:                                                ; preds = %1
  call void @llvm.lifetime.start.p0(i64 8, ptr %3) #9
  %7 = load ptr, ptr %2, align 8
  %8 = getelementptr inbounds nuw %struct.SDL_WaylandDataSource, ptr %7, i32 0, i32 1
  %9 = load ptr, ptr %8, align 8
  store ptr %9, ptr %3, align 8
  %10 = load ptr, ptr %3, align 8
  %11 = icmp ne ptr %10, null
  br i1 %11, label %12, label %21

12:                                               ; preds = %6
  %13 = load ptr, ptr %3, align 8
  %14 = getelementptr inbounds nuw %struct.SDL_WaylandDataDevice, ptr %13, i32 0, i32 11
  %15 = load ptr, ptr %14, align 8
  %16 = load ptr, ptr %2, align 8
  %17 = icmp eq ptr %15, %16
  br i1 %17, label %18, label %21

18:                                               ; preds = %12
  %19 = load ptr, ptr %3, align 8
  %20 = getelementptr inbounds nuw %struct.SDL_WaylandDataDevice, ptr %19, i32 0, i32 11
  store ptr null, ptr %20, align 8
  br label %21

21:                                               ; preds = %18, %12, %6
  %22 = load ptr, ptr %2, align 8
  %23 = getelementptr inbounds nuw %struct.SDL_WaylandDataSource, ptr %22, i32 0, i32 0
  %24 = load ptr, ptr %23, align 8
  call void @wl_data_source_destroy(ptr noundef %24)
  %25 = load ptr, ptr %2, align 8
  %26 = getelementptr inbounds nuw %struct.SDL_WaylandDataSource, ptr %25, i32 0, i32 3
  %27 = getelementptr inbounds nuw %struct.SDL_WaylandUserdata, ptr %26, i32 0, i32 0
  %28 = load i32, ptr %27, align 8
  %29 = icmp ne i32 %28, 0
  br i1 %29, label %30, label %35

30:                                               ; preds = %21
  %31 = load ptr, ptr %2, align 8
  %32 = getelementptr inbounds nuw %struct.SDL_WaylandDataSource, ptr %31, i32 0, i32 3
  %33 = getelementptr inbounds nuw %struct.SDL_WaylandUserdata, ptr %32, i32 0, i32 0
  %34 = load i32, ptr %33, align 8
  call void @SDL_CancelClipboardData(i32 noundef %34)
  br label %40

35:                                               ; preds = %21
  %36 = load ptr, ptr %2, align 8
  %37 = getelementptr inbounds nuw %struct.SDL_WaylandDataSource, ptr %36, i32 0, i32 3
  %38 = getelementptr inbounds nuw %struct.SDL_WaylandUserdata, ptr %37, i32 0, i32 1
  %39 = load ptr, ptr %38, align 8
  call void @SDL_free_REAL(ptr noundef %39)
  br label %40

40:                                               ; preds = %35, %30
  %41 = load ptr, ptr %2, align 8
  call void @SDL_free_REAL(ptr noundef %41)
  call void @llvm.lifetime.end.p0(i64 8, ptr %3) #9
  br label %42

42:                                               ; preds = %40, %1
  ret void
}

; Function Attrs: inlinehint nounwind uwtable
define internal void @wl_data_device_set_selection(ptr noundef %0, ptr noundef %1, i32 noundef %2) #3 {
  %4 = alloca ptr, align 8
  %5 = alloca ptr, align 8
  %6 = alloca i32, align 4
  store ptr %0, ptr %4, align 8
  store ptr %1, ptr %5, align 8
  store i32 %2, ptr %6, align 4
  %7 = load ptr, ptr @WAYLAND_wl_proxy_marshal_flags, align 8
  %8 = load ptr, ptr %4, align 8
  %9 = load ptr, ptr @WAYLAND_wl_proxy_get_version, align 8
  %10 = load ptr, ptr %4, align 8
  %11 = call i32 %9(ptr noundef %10)
  %12 = load ptr, ptr %5, align 8
  %13 = load i32, ptr %6, align 4
  %14 = call ptr (ptr, i32, ptr, i32, i32, ...) %7(ptr noundef %8, i32 noundef 1, ptr noundef null, i32 noundef %11, i32 noundef 0, ptr noundef %12, i32 noundef %13)
  ret void
}

; Function Attrs: inlinehint nounwind uwtable
define internal void @wl_data_source_offer(ptr noundef %0, ptr noundef %1) #3 {
  %3 = alloca ptr, align 8
  %4 = alloca ptr, align 8
  store ptr %0, ptr %3, align 8
  store ptr %1, ptr %4, align 8
  %5 = load ptr, ptr @WAYLAND_wl_proxy_marshal_flags, align 8
  %6 = load ptr, ptr %3, align 8
  %7 = load ptr, ptr @WAYLAND_wl_proxy_get_version, align 8
  %8 = load ptr, ptr %3, align 8
  %9 = call i32 %7(ptr noundef %8)
  %10 = load ptr, ptr %4, align 8
  %11 = call ptr (ptr, i32, ptr, i32, i32, ...) %5(ptr noundef %6, i32 noundef 0, ptr noundef null, i32 noundef %9, i32 noundef 0, ptr noundef %10)
  ret void
}

; Function Attrs: nounwind uwtable
define hidden zeroext i1 @Wayland_data_device_set_selection(ptr noundef %0, ptr noundef %1, ptr noundef %2, i64 noundef %3) #0 {
  %5 = alloca ptr, align 8
  %6 = alloca ptr, align 8
  %7 = alloca ptr, align 8
  %8 = alloca i64, align 8
  %9 = alloca i8, align 1
  %10 = alloca i64, align 8
  %11 = alloca ptr, align 8
  store ptr %0, ptr %5, align 8
  store ptr %1, ptr %6, align 8
  store ptr %2, ptr %7, align 8
  store i64 %3, ptr %8, align 8
  call void @llvm.lifetime.start.p0(i64 1, ptr %9) #9
  store i8 1, ptr %9, align 1
  %12 = load ptr, ptr %5, align 8
  %13 = icmp ne ptr %12, null
  br i1 %13, label %17, label %14

14:                                               ; preds = %4
  %15 = call zeroext i1 (ptr, ...) @SDL_SetError_REAL(ptr noundef @.str.10)
  %16 = zext i1 %15 to i8
  store i8 %16, ptr %9, align 1
  br label %84

17:                                               ; preds = %4
  %18 = load ptr, ptr %6, align 8
  %19 = icmp ne ptr %18, null
  br i1 %19, label %23, label %20

20:                                               ; preds = %17
  %21 = call zeroext i1 (ptr, ...) @SDL_SetError_REAL(ptr noundef @.str.12)
  %22 = zext i1 %21 to i8
  store i8 %22, ptr %9, align 1
  br label %83

23:                                               ; preds = %17
  call void @llvm.lifetime.start.p0(i64 8, ptr %10) #9
  store i64 0, ptr %10, align 8
  call void @llvm.lifetime.start.p0(i64 8, ptr %11) #9
  store i64 0, ptr %10, align 8
  br label %24

24:                                               ; preds = %37, %23
  %25 = load i64, ptr %10, align 8
  %26 = load i64, ptr %8, align 8
  %27 = icmp ult i64 %25, %26
  br i1 %27, label %28, label %40

28:                                               ; preds = %24
  %29 = load ptr, ptr %7, align 8
  %30 = load i64, ptr %10, align 8
  %31 = getelementptr inbounds nuw ptr, ptr %29, i64 %30
  %32 = load ptr, ptr %31, align 8
  store ptr %32, ptr %11, align 8
  %33 = load ptr, ptr %6, align 8
  %34 = getelementptr inbounds nuw %struct.SDL_WaylandDataSource, ptr %33, i32 0, i32 0
  %35 = load ptr, ptr %34, align 8
  %36 = load ptr, ptr %11, align 8
  call void @wl_data_source_offer(ptr noundef %35, ptr noundef %36)
  br label %37

37:                                               ; preds = %28
  %38 = load i64, ptr %10, align 8
  %39 = add i64 %38, 1
  store i64 %39, ptr %10, align 8
  br label %24, !llvm.loop !13

40:                                               ; preds = %24
  %41 = load ptr, ptr %6, align 8
  %42 = getelementptr inbounds nuw %struct.SDL_WaylandDataSource, ptr %41, i32 0, i32 0
  %43 = load ptr, ptr %42, align 8
  call void @wl_data_source_offer(ptr noundef %43, ptr noundef @.str)
  %44 = load i64, ptr %10, align 8
  %45 = icmp eq i64 %44, 0
  br i1 %45, label %46, label %51

46:                                               ; preds = %40
  %47 = load ptr, ptr %5, align 8
  %48 = call zeroext i1 @Wayland_data_device_clear_selection(ptr noundef %47)
  %49 = call zeroext i1 (ptr, ...) @SDL_SetError_REAL(ptr noundef @.str.13)
  %50 = zext i1 %49 to i8
  store i8 %50, ptr %9, align 1
  br label %82

51:                                               ; preds = %40
  %52 = load ptr, ptr %5, align 8
  %53 = getelementptr inbounds nuw %struct.SDL_WaylandDataDevice, ptr %52, i32 0, i32 10
  %54 = load i32, ptr %53, align 8
  %55 = icmp ne i32 %54, 0
  br i1 %55, label %56, label %66

56:                                               ; preds = %51
  %57 = load ptr, ptr %5, align 8
  %58 = getelementptr inbounds nuw %struct.SDL_WaylandDataDevice, ptr %57, i32 0, i32 0
  %59 = load ptr, ptr %58, align 8
  %60 = load ptr, ptr %6, align 8
  %61 = getelementptr inbounds nuw %struct.SDL_WaylandDataSource, ptr %60, i32 0, i32 0
  %62 = load ptr, ptr %61, align 8
  %63 = load ptr, ptr %5, align 8
  %64 = getelementptr inbounds nuw %struct.SDL_WaylandDataDevice, ptr %63, i32 0, i32 10
  %65 = load i32, ptr %64, align 8
  call void @wl_data_device_set_selection(ptr noundef %59, ptr noundef %62, i32 noundef %65)
  br label %66

66:                                               ; preds = %56, %51
  %67 = load ptr, ptr %5, align 8
  %68 = getelementptr inbounds nuw %struct.SDL_WaylandDataDevice, ptr %67, i32 0, i32 11
  %69 = load ptr, ptr %68, align 8
  %70 = icmp ne ptr %69, null
  br i1 %70, label %71, label %75

71:                                               ; preds = %66
  %72 = load ptr, ptr %5, align 8
  %73 = getelementptr inbounds nuw %struct.SDL_WaylandDataDevice, ptr %72, i32 0, i32 11
  %74 = load ptr, ptr %73, align 8
  call void @Wayland_data_source_destroy(ptr noundef %74)
  br label %75

75:                                               ; preds = %71, %66
  %76 = load ptr, ptr %6, align 8
  %77 = load ptr, ptr %5, align 8
  %78 = getelementptr inbounds nuw %struct.SDL_WaylandDataDevice, ptr %77, i32 0, i32 11
  store ptr %76, ptr %78, align 8
  %79 = load ptr, ptr %5, align 8
  %80 = load ptr, ptr %6, align 8
  %81 = getelementptr inbounds nuw %struct.SDL_WaylandDataSource, ptr %80, i32 0, i32 1
  store ptr %79, ptr %81, align 8
  br label %82

82:                                               ; preds = %75, %46
  call void @llvm.lifetime.end.p0(i64 8, ptr %11) #9
  call void @llvm.lifetime.end.p0(i64 8, ptr %10) #9
  br label %83

83:                                               ; preds = %82, %20
  br label %84

84:                                               ; preds = %83, %14
  %85 = load i8, ptr %9, align 1, !range !5, !noundef !6
  %86 = trunc i8 %85 to i1
  call void @llvm.lifetime.end.p0(i64 1, ptr %9) #9
  ret i1 %86
}