; Function Attrs: nounwind uwtable
define hidden zeroext i1 @Wayland_data_device_set_selection(ptr noundef %0, ptr noundef %1, ptr noundef readonly captures(none) %2, i64 noundef %3) local_unnamed_addr #0 {
  %.not = icmp eq ptr %0, null
  br i1 %.not, label %5, label %7

5:                                                ; preds = %4
  %6 = tail call zeroext i1 (ptr, ...) @SDL_SetError_REAL(ptr noundef nonnull @.str.10) #12
  br label %64

7:                                                ; preds = %4
  %.not27 = icmp eq ptr %1, null
  br i1 %.not27, label %8, label %.preheader

.preheader:                                       ; preds = %7
  %.not31 = icmp eq i64 %3, 0
  br i1 %.not31, label %.critedge, label %.lr.ph

8:                                                ; preds = %7
  %9 = tail call zeroext i1 (ptr, ...) @SDL_SetError_REAL(ptr noundef nonnull @.str.12) #12
  br label %64

.lr.ph:                                           ; preds = %.preheader, %.lr.ph
  %.02230 = phi i64 [ %17, %.lr.ph ], [ 0, %.preheader ]
  %10 = getelementptr inbounds nuw ptr, ptr %2, i64 %.02230
  %11 = load ptr, ptr %10, align 8
  %12 = load ptr, ptr %1, align 8
  %13 = load ptr, ptr @WAYLAND_wl_proxy_marshal_flags, align 8
  %14 = load ptr, ptr @WAYLAND_wl_proxy_get_version, align 8
  %15 = tail call i32 %14(ptr noundef %12) #12
  %16 = tail call ptr (ptr, i32, ptr, i32, i32, ...) %13(ptr noundef %12, i32 noundef 0, ptr noundef null, i32 noundef %15, i32 noundef 0, ptr noundef %11) #12
  %17 = add nuw i64 %.02230, 1
  %exitcond.not = icmp eq i64 %17, %3
  br i1 %exitcond.not, label %._crit_edge, label %.lr.ph, !llvm.loop !11

._crit_edge:                                      ; preds = %.lr.ph
  %18 = load ptr, ptr %1, align 8
  %19 = load ptr, ptr @WAYLAND_wl_proxy_marshal_flags, align 8
  %20 = load ptr, ptr @WAYLAND_wl_proxy_get_version, align 8
  %21 = tail call i32 %20(ptr noundef %18) #12
  %22 = tail call ptr (ptr, i32, ptr, i32, i32, ...) %19(ptr noundef %18, i32 noundef 0, ptr noundef null, i32 noundef %21, i32 noundef 0, ptr noundef nonnull @.str) #12
  %23 = getelementptr inbounds nuw i8, ptr %0, i64 72
  %24 = load i32, ptr %23, align 8
  %.not28 = icmp eq i32 %24, 0
  br i1 %.not28, label %39, label %32

.critedge:                                        ; preds = %.preheader
  %25 = load ptr, ptr %1, align 8
  %26 = load ptr, ptr @WAYLAND_wl_proxy_marshal_flags, align 8
  %27 = load ptr, ptr @WAYLAND_wl_proxy_get_version, align 8
  %28 = tail call i32 %27(ptr noundef %25) #12
  %29 = tail call ptr (ptr, i32, ptr, i32, i32, ...) %26(ptr noundef %25, i32 noundef 0, ptr noundef null, i32 noundef %28, i32 noundef 0, ptr noundef nonnull @.str) #12
  %30 = tail call zeroext i1 @Wayland_data_device_clear_selection(ptr noundef nonnull %0)
  %31 = tail call zeroext i1 (ptr, ...) @SDL_SetError_REAL(ptr noundef nonnull @.str.13) #12
  br label %64

32:                                               ; preds = %._crit_edge
  %33 = load ptr, ptr %0, align 8
  %34 = load ptr, ptr %1, align 8
  %35 = load ptr, ptr @WAYLAND_wl_proxy_marshal_flags, align 8
  %36 = load ptr, ptr @WAYLAND_wl_proxy_get_version, align 8
  %37 = tail call i32 %36(ptr noundef %33) #12
  %38 = tail call ptr (ptr, i32, ptr, i32, i32, ...) %35(ptr noundef %33, i32 noundef 1, ptr noundef null, i32 noundef %37, i32 noundef 0, ptr noundef %34, i32 noundef %24) #12
  br label %39

39:                                               ; preds = %32, %._crit_edge
  %40 = getelementptr inbounds nuw i8, ptr %0, i64 80
  %41 = load ptr, ptr %40, align 8
  %.not29 = icmp eq ptr %41, null
  br i1 %.not29, label %62, label %42

42:                                               ; preds = %39
  %43 = getelementptr inbounds nuw i8, ptr %41, i64 8
  %44 = load ptr, ptr %43, align 8
  %.not13.i = icmp eq ptr %44, null
  br i1 %.not13.i, label %50, label %45

45:                                               ; preds = %42
  %46 = getelementptr inbounds nuw i8, ptr %44, i64 80
  %47 = load ptr, ptr %46, align 8
  %48 = icmp eq ptr %47, %41
  br i1 %48, label %49, label %50

49:                                               ; preds = %45
  store ptr null, ptr %46, align 8
  br label %50

50:                                               ; preds = %49, %45, %42
  %51 = load ptr, ptr %41, align 8
  %52 = load ptr, ptr @WAYLAND_wl_proxy_marshal_flags, align 8
  %53 = load ptr, ptr @WAYLAND_wl_proxy_get_version, align 8
  %54 = tail call i32 %53(ptr noundef %51) #12
  %55 = tail call ptr (ptr, i32, ptr, i32, i32, ...) %52(ptr noundef %51, i32 noundef 1, ptr noundef null, i32 noundef %54, i32 noundef 1) #12
  %56 = getelementptr inbounds nuw i8, ptr %41, i64 24
  %57 = load i32, ptr %56, align 8
  %.not14.i = icmp eq i32 %57, 0
  br i1 %.not14.i, label %59, label %58

58:                                               ; preds = %50
  tail call void @SDL_CancelClipboardData(i32 noundef %57) #12
  br label %Wayland_data_source_destroy.exit

59:                                               ; preds = %50
  %60 = getelementptr inbounds nuw i8, ptr %41, i64 32
  %61 = load ptr, ptr %60, align 8
  tail call void @SDL_free_REAL(ptr noundef %61) #12
  br label %Wayland_data_source_destroy.exit

Wayland_data_source_destroy.exit:                 ; preds = %58, %59
  tail call void @SDL_free_REAL(ptr noundef nonnull %41) #12
  br label %62

62:                                               ; preds = %Wayland_data_source_destroy.exit, %39
  store ptr %1, ptr %40, align 8
  %63 = getelementptr inbounds nuw i8, ptr %1, i64 8
  store ptr %0, ptr %63, align 8
  br label %64

64:                                               ; preds = %.critedge, %62, %8, %5
  %.0 = phi i1 [ %9, %8 ], [ %6, %5 ], [ %31, %.critedge ], [ true, %62 ]
  ret i1 %.0
}